; ModuleID = 'source-C-CXX/39/2683.c'
source_filename = "source-C-CXX/39/2683.c"
target datalayout = "e-m:e-p270:32:32-p271:32:32-p272:64:64-i64:64-f80:128-n8:16:32:64-S128"
target triple = "x86_64-pc-linux-gnu"

@.str = private unnamed_addr constant [11 x i8] c"%f%f%f%f%f\00", align 1
@.str.1 = private unnamed_addr constant [14 x i8] c"Invalid input\00", align 1
@.str.2 = private unnamed_addr constant [5 x i8] c"%.4f\00", align 1

; Function Attrs: nofree nounwind sspstrong uwtable
define dso_local i32 @main() local_unnamed_addr #0 {
  %1 = alloca float, align 4
  %2 = alloca float, align 4
  %3 = alloca float, align 4
  %4 = alloca float, align 4
  %5 = alloca float, align 4
  %6 = bitcast float* %1 to i8*
  call void @llvm.lifetime.start.p0i8(i64 4, i8* nonnull %6) #4
  %7 = bitcast float* %2 to i8*
  call void @llvm.lifetime.start.p0i8(i64 4, i8* nonnull %7) #4
  %8 = bitcast float* %3 to i8*
  call void @llvm.lifetime.start.p0i8(i64 4, i8* nonnull %8) #4
  %9 = bitcast float* %4 to i8*
  call void @llvm.lifetime.start.p0i8(i64 4, i8* nonnull %9) #4
  %10 = bitcast float* %5 to i8*
  call void @llvm.lifetime.start.p0i8(i64 4, i8* nonnull %10) #4
  %11 = call i32 (i8*, ...) @__isoc99_scanf(i8* getelementptr inbounds ([11 x i8], [11 x i8]* @.str, i64 0, i64 0), float* nonnull %1, float* nonnull %2, float* nonnull %3, float* nonnull %4, float* nonnull %5)
  %12 = load float, float* %1, align 4, !tbaa !5
  %13 = load float, float* %2, align 4, !tbaa !5
  %14 = fadd float %12, %13
  %15 = load float, float* %3, align 4, !tbaa !5
  %16 = fadd float %14, %15
  %17 = load float, float* %4, align 4, !tbaa !5
  %18 = fadd float %16, %17
  %19 = fmul float %18, 5.000000e-01
  %20 = fsub float %19, %12
  %21 = fsub float %19, %13
  %22 = fmul float %20, %21
  %23 = fsub float %19, %15
  %24 = fmul float %23, %22
  %25 = fsub float %19, %17
  %26 = fmul float %25, %24
  %27 = fpext float %26 to double
  %28 = fmul float %12, %13
  %29 = fmul float %28, %15
  %30 = fmul float %29, %17
  %31 = fpext float %30 to double
  %32 = load float, float* %5, align 4, !tbaa !5
  %33 = fdiv float %32, 1.800000e+02
  %34 = fmul float %33, 1.000000e+02
  %35 = fmul float %34, 5.000000e-01
  %36 = fpext float %35 to double
  %37 = call double @cos(double %36) #4
  %38 = fmul double %37, %31
  %39 = load float, float* %5, align 4, !tbaa !5
  %40 = fdiv float %39, 1.800000e+02
  %41 = fmul float %40, 1.000000e+02
  %42 = fmul float %41, 5.000000e-01
  %43 = fpext float %42 to double
  %44 = call double @cos(double %43) #4
  %45 = fmul double %38, %44
  %46 = fsub double %27, %45
  %47 = fptrunc double %46 to float
  %48 = fcmp olt float %47, 0.000000e+00
  br i1 %48, label %49, label %51

49:                                               ; preds = %0
  %50 = call i32 (i8*, ...) @printf(i8* nonnull dereferenceable(1) getelementptr inbounds ([14 x i8], [14 x i8]* @.str.1, i64 0, i64 0))
  br label %51

51:                                               ; preds = %49, %0
  %52 = fcmp ult float %47, 0.000000e+00
  br i1 %52, label %57, label %53

53:                                               ; preds = %51
  %54 = fpext float %47 to double
  %55 = call double @sqrt(double %54) #4
  %56 = call i32 (i8*, ...) @printf(i8* nonnull dereferenceable(1) getelementptr inbounds ([5 x i8], [5 x i8]* @.str.2, i64 0, i64 0), double %55)
  br label %57

57:                                               ; preds = %53, %51
  call void @llvm.lifetime.end.p0i8(i64 4, i8* nonnull %10) #4
  call void @llvm.lifetime.end.p0i8(i64 4, i8* nonnull %9) #4
  call void @llvm.lifetime.end.p0i8(i64 4, i8* nonnull %8) #4
  call void @llvm.lifetime.end.p0i8(i64 4, i8* nonnull %7) #4
  call void @llvm.lifetime.end.p0i8(i64 4, i8* nonnull %6) #4
  ret i32 0
}

; Function Attrs: argmemonly mustprogress nofree nosync nounwind willreturn
declare void @llvm.lifetime.start.p0i8(i64 immarg, i8* nocapture) #1

; Function Attrs: nofree nounwind
declare noundef i32 @__isoc99_scanf(i8* nocapture noundef readonly, ...) local_unnamed_addr #2

; Function Attrs: mustprogress nofree nounwind willreturn
declare double @cos(double) local_unnamed_addr #3

; Function Attrs: nofree nounwind
declare noundef i32 @printf(i8* nocapture noundef readonly, ...) local_unnamed_addr #2

; Function Attrs: mustprogress nofree nounwind willreturn
declare double @sqrt(double) local_unnamed_addr #3

; Function Attrs: argmemonly mustprogress nofree nosync nounwind willreturn
declare void @llvm.lifetime.end.p0i8(i64 immarg, i8* nocapture) #1


!llvm.module.flags = !{!0, !1, !2, !3}
!llvm.ident = !{!4}

!0 = !{i32 1, !"wchar_size", i32 4}
!1 = !{i32 7, !"PIC Level", i32 2}
!2 = !{i32 7, !"PIE Level", i32 2}
!3 = !{i32 7, !"uwtable", i32 1}
!4 = !{!"clang version 13.0.0"}
!5 = !{!6, !6, i64 0}
!6 = !{!"float", !7, i64 0}
!7 = !{!"omnipotent char", !8, i64 0}
!8 = !{!"Simple C/C++ TBAA"}
